; Function Attrs: mustprogress nounwind uwtable
define dso_local void @_ZN21cmLocalNinjaGeneratorD0Ev(ptr noundef nonnull align 8 dereferenceable(952) %0) unnamed_addr #4 align 2 personality ptr @__gxx_personality_v0 {
  store ptr getelementptr inbounds ({ [25 x ptr] }, ptr @_ZTV21cmLocalNinjaGenerator, i64 0, i32 0, i64 2), ptr %0, align 8
  %2 = getelementptr inbounds i8, ptr %0, i64 928
  %3 = load ptr, ptr %2, align 8
  %.not.i.i.i.i = icmp eq ptr %3, null
  br i1 %.not.i.i.i.i, label %_ZNSt6vectorIPK15cmCustomCommandSaIS2_EED2Ev.exit.i, label %4

4:                                                ; preds = %1
  tail call void @_ZdlPv(ptr noundef nonnull %3) #23
  br label %_ZNSt6vectorIPK15cmCustomCommandSaIS2_EED2Ev.exit.i

_ZNSt6vectorIPK15cmCustomCommandSaIS2_EED2Ev.exit.i: ; preds = %4, %1
  %5 = getelementptr inbounds i8, ptr %0, i64 880
  %6 = getelementptr inbounds i8, ptr %0, i64 896
  %7 = load ptr, ptr %6, align 8
  invoke void @_ZNSt8_Rb_treeIPK15cmCustomCommandSt4pairIKS2_St3setIP17cmGeneratorTargetSt4lessIS7_ESaIS7_EEESt10_Select1stISC_ES8_IS2_ESaISC_EE8_M_eraseEPSt13_Rb_tree_nodeISC_E(ptr noundef nonnull align 8 dereferenceable(48) %5, ptr noundef %7)
          to label %_ZN21cmLocalNinjaGeneratorD2Ev.exit unwind label %8

8:                                                ; preds = %_ZNSt6vectorIPK15cmCustomCommandSaIS2_EED2Ev.exit.i
  %9 = landingpad { ptr, i32 }
          catch ptr null
  %10 = extractvalue { ptr, i32 } %9, 0
  tail call void @__clang_call_terminate(ptr %10) #24
  unreachable

_ZN21cmLocalNinjaGeneratorD2Ev.exit:              ; preds = %_ZNSt6vectorIPK15cmCustomCommandSaIS2_EED2Ev.exit.i
  %11 = getelementptr inbounds i8, ptr %0, i64 848
  tail call void @_ZNSt7__cxx1112basic_stringIcSt11char_traitsIcESaIcEED1Ev(ptr noundef nonnull align 8 dereferenceable(32) %11) #22
  tail call void @_ZN22cmLocalCommonGeneratorD2Ev(ptr noundef nonnull align 8 dereferenceable(848) %0) #22
  tail call void @_ZdlPv(ptr noundef nonnull %0) #23
  ret void
}